; Function Attrs: mustprogress uwtable
define hidden noalias noundef ptr @_Z14mk_const_probed(double noundef %0) local_unnamed_addr #3 {
  %2 = tail call noalias noundef ptr @_ZN6memory8allocateEm(i64 noundef 24)
  %3 = getelementptr inbounds nuw i8, ptr %2, i64 8
  store i32 0, ptr %3, align 8, !tbaa !6
  store ptr getelementptr inbounds nuw inrange(-16, 24) (i8, ptr @_ZTV11const_probe, i64 16), ptr %2, align 8, !tbaa !3
  %4 = getelementptr inbounds nuw i8, ptr %2, i64 16
  store double %0, ptr %4, align 8, !tbaa !10
  ret ptr %2
}